; Function Attrs: nounwind uwtable
define dso_local range(i32 -1, 1) i32 @PyList_Clear(ptr noundef captures(none) %0) local_unnamed_addr #0 {
  %2 = getelementptr i8, ptr %0, i64 8
  %.val = load ptr, ptr %2, align 8, !tbaa !105
  %3 = getelementptr i8, ptr %.val, i64 168
  %.val2 = load i64, ptr %3, align 8, !tbaa !106
  %4 = and i64 %.val2, 33554432
  %.not = icmp eq i64 %4, 0
  br i1 %.not, label %5, label %6

5:                                                ; preds = %1
  tail call void @_PyErr_BadInternalCall(ptr noundef nonnull @.str.1, i32 noundef 1441) #12
  br label %list_clear.exit

6:                                                ; preds = %1
  %7 = getelementptr inbounds nuw i8, ptr %0, i64 24
  %8 = load ptr, ptr %7, align 8, !tbaa !27
  %9 = icmp eq ptr %8, null
  br i1 %9, label %list_clear.exit, label %10

10:                                               ; preds = %6
  %11 = getelementptr i8, ptr %0, i64 16
  %.val.i.i = load i64, ptr %11, align 8, !tbaa !33
  %12 = add i64 %.val.i.i, -1
  %13 = icmp sgt i64 %12, -1
  tail call void @llvm.memset.p0.i64(ptr noundef nonnull align 8 dereferenceable(24) %11, i8 0, i64 24, i1 false)
  br i1 %13, label %.lr.ph.i.i, label %._crit_edge.i.i

.lr.ph.i.i:                                       ; preds = %10, %Py_XDECREF.exit.i.i
  %14 = phi i64 [ %23, %Py_XDECREF.exit.i.i ], [ %12, %10 ]
  %15 = getelementptr ptr, ptr %8, i64 %14
  %16 = load ptr, ptr %15, align 8, !tbaa !112
  %.not.i.i.i = icmp eq ptr %16, null
  br i1 %.not.i.i.i, label %Py_XDECREF.exit.i.i, label %17

17:                                               ; preds = %.lr.ph.i.i
  %18 = load i32, ptr %16, align 8, !tbaa !32
  %.not.i.i.i.i = icmp sgt i32 %18, -1
  br i1 %.not.i.i.i.i, label %19, label %Py_XDECREF.exit.i.i

19:                                               ; preds = %17
  %20 = add nsw i32 %18, -1
  store i32 %20, ptr %16, align 8, !tbaa !32
  %21 = icmp eq i32 %20, 0
  br i1 %21, label %22, label %Py_XDECREF.exit.i.i

22:                                               ; preds = %19
  tail call void @_Py_Dealloc(ptr noundef nonnull %16) #12
  br label %Py_XDECREF.exit.i.i

Py_XDECREF.exit.i.i:                              ; preds = %22, %19, %17, %.lr.ph.i.i
  %23 = add nsw i64 %14, -1
  %24 = icmp sgt i64 %14, 0
  br i1 %24, label %.lr.ph.i.i, label %._crit_edge.i.i, !llvm.loop !122

._crit_edge.i.i:                                  ; preds = %Py_XDECREF.exit.i.i, %10
  tail call void @PyMem_Free(ptr noundef nonnull %8) #12
  br label %list_clear.exit

list_clear.exit:                                  ; preds = %._crit_edge.i.i, %6, %5
  %.0 = phi i32 [ -1, %5 ], [ 0, %6 ], [ 0, %._crit_edge.i.i ]
  ret i32 %.0
}